target datalayout = "e-m:e-p270:32:32-p271:32:32-p272:64:64-i64:64-i128:128-f80:128-n8:16:32:64-S128"
target triple = "x86_64-pc-linux-gnu"

%struct.dt_lib_module_t = type { %struct.dt_action_t, ptr, ptr, ptr, ptr, ptr, ptr, ptr, ptr, ptr, ptr, ptr, ptr, ptr, ptr, ptr, ptr, ptr, ptr, ptr, ptr, ptr, ptr, ptr, ptr, ptr, ptr, ptr, ptr, ptr, ptr, [128 x i8], ptr, ptr, i32, ptr, ptr, ptr, i32 }
%struct.dt_action_t = type { i32, ptr, ptr, ptr, ptr, ptr }
%struct.dt_lib_tagging_t = type { [1024 x i8], ptr, ptr, ptr, ptr, ptr, ptr, ptr, ptr, ptr, ptr, ptr, ptr, ptr, ptr, ptr, ptr, ptr, ptr, ptr, ptr, ptr, i32, i32, i32, i32, i32, ptr, ptr, %struct.anon, i32 }
%struct.anon = type { ptr, ptr, ptr, i32, i32, i32, i32, i32 }

; Function Attrs: inlinehint nounwind uwtable
define internal ptr @dt_action_lib(ptr noundef %0) #7 {
  %2 = alloca ptr, align 8
  store ptr %0, ptr %2, align 8, !tbaa !115
  br label %3

3:                                                ; preds = %13, %1
  %4 = load ptr, ptr %2, align 8, !tbaa !115
  %5 = icmp ne ptr %4, null
  br i1 %5, label %6, label %11

6:                                                ; preds = %3
  %7 = load ptr, ptr %2, align 8, !tbaa !115
  %8 = getelementptr inbounds nuw %struct.dt_action_t, ptr %7, i32 0, i32 0
  %9 = load i32, ptr %8, align 8, !tbaa !214
  %10 = icmp ne i32 %9, 3
  br label %11

11:                                               ; preds = %6, %3
  %12 = phi i1 [ false, %3 ], [ %10, %6 ]
  br i1 %12, label %13, label %17

13:                                               ; preds = %11
  %14 = load ptr, ptr %2, align 8, !tbaa !115
  %15 = getelementptr inbounds nuw %struct.dt_action_t, ptr %14, i32 0, i32 4
  %16 = load ptr, ptr %15, align 8, !tbaa !215
  store ptr %16, ptr %2, align 8, !tbaa !115
  br label %3

17:                                               ; preds = %11
  %18 = load ptr, ptr %2, align 8, !tbaa !115
  ret ptr %18
}

; Function Attrs: nounwind uwtable
define internal void @_lib_tagging_tag_redo(ptr noundef %0) #0 {
  %2 = alloca ptr, align 8
  %3 = alloca ptr, align 8
  %4 = alloca ptr, align 8
  %5 = alloca ptr, align 8
  %6 = alloca i32, align 4
  store ptr %0, ptr %2, align 8, !tbaa !115
  call void @llvm.lifetime.start.p0(i64 8, ptr %3) #11
  %7 = load ptr, ptr %2, align 8, !tbaa !115
  %8 = call ptr @dt_action_lib(ptr noundef %7)
  store ptr %8, ptr %3, align 8, !tbaa !6
  call void @llvm.lifetime.start.p0(i64 8, ptr %4) #11
  %9 = load ptr, ptr %3, align 8, !tbaa !6
  %10 = getelementptr inbounds nuw %struct.dt_lib_module_t, ptr %9, i32 0, i32 30
  %11 = load ptr, ptr %10, align 8, !tbaa !11
  store ptr %11, ptr %4, align 8, !tbaa !19
  %12 = load ptr, ptr %4, align 8, !tbaa !19
  %13 = getelementptr inbounds nuw %struct.dt_lib_tagging_t, ptr %12, i32 0, i32 28
  %14 = load ptr, ptr %13, align 8, !tbaa !104
  %15 = icmp ne ptr %14, null
  br i1 %15, label %16, label %36

16:                                               ; preds = %1
  call void @llvm.lifetime.start.p0(i64 8, ptr %5) #11
  %17 = call ptr @dt_act_on_get_images(i32 noundef 0, i32 noundef 1, i32 noundef 0)
  store ptr %17, ptr %5, align 8, !tbaa !32
  call void @llvm.lifetime.start.p0(i64 4, ptr %6) #11
  %18 = load ptr, ptr %4, align 8, !tbaa !19
  %19 = getelementptr inbounds nuw %struct.dt_lib_tagging_t, ptr %18, i32 0, i32 28
  %20 = load ptr, ptr %19, align 8, !tbaa !104
  %21 = load ptr, ptr %5, align 8, !tbaa !32
  %22 = call i32 @dt_tag_attach_string_list(ptr noundef %20, ptr noundef %21, i32 noundef 1)
  store i32 %22, ptr %6, align 4, !tbaa !31
  %23 = load i32, ptr %6, align 4, !tbaa !31
  %24 = icmp ne i32 %23, 0
  br i1 %24, label %25, label %27

25:                                               ; preds = %16
  %26 = load ptr, ptr %5, align 8, !tbaa !32
  call void @dt_image_synch_xmps(ptr noundef %26)
  br label %27

27:                                               ; preds = %25, %16
  %28 = load ptr, ptr %5, align 8, !tbaa !32
  call void @g_list_free(ptr noundef %28)
  %29 = load ptr, ptr %3, align 8, !tbaa !6
  call void @_init_treeview(ptr noundef %29, i32 noundef 0)
  %30 = load ptr, ptr %3, align 8, !tbaa !6
  call void @_init_treeview(ptr noundef %30, i32 noundef 1)
  %31 = load i32, ptr %6, align 4, !tbaa !31
  %32 = icmp ne i32 %31, 0
  br i1 %32, label %33, label %35

33:                                               ; preds = %27
  %34 = load ptr, ptr %3, align 8, !tbaa !6
  call void @_raise_signal_tag_changed(ptr noundef %34)
  br label %35

35:                                               ; preds = %33, %27
  call void @llvm.lifetime.end.p0(i64 4, ptr %6) #11
  call void @llvm.lifetime.end.p0(i64 8, ptr %5) #11
  br label %36

36:                                               ; preds = %35, %1
  call void @llvm.lifetime.end.p0(i64 8, ptr %4) #11
  call void @llvm.lifetime.end.p0(i64 8, ptr %3) #11
  ret void
}