; Function Attrs: nounwind uwtable
define internal void @_lib_tagging_tag_redo(ptr noundef %0) #1 {
  %.not5.i = icmp eq ptr %0, null
  br i1 %.not5.i, label %dt_action_lib.exit, label %.lr.ph.i

.lr.ph.i:                                         ; preds = %1, %3
  %.06.i = phi ptr [ %5, %3 ], [ %0, %1 ]
  %2 = load i32, ptr %.06.i, align 8, !tbaa !146
  %.not4.i = icmp eq i32 %2, 3
  br i1 %.not4.i, label %dt_action_lib.exit, label %3

3:                                                ; preds = %.lr.ph.i
  %4 = getelementptr inbounds nuw i8, ptr %.06.i, i64 32
  %5 = load ptr, ptr %4, align 8, !tbaa !147
  %.not.i = icmp eq ptr %5, null
  br i1 %.not.i, label %dt_action_lib.exit, label %.lr.ph.i

dt_action_lib.exit:                               ; preds = %.lr.ph.i, %3, %1
  %.0.lcssa.i = phi ptr [ null, %1 ], [ %.06.i, %.lr.ph.i ], [ null, %3 ]
  %6 = getelementptr inbounds nuw i8, ptr %.0.lcssa.i, i64 280
  %7 = load ptr, ptr %6, align 8, !tbaa !6
  %8 = getelementptr inbounds nuw i8, ptr %7, i64 1224
  %9 = load ptr, ptr %8, align 8, !tbaa !139
  %.not = icmp eq ptr %9, null
  br i1 %.not, label %15, label %10

10:                                               ; preds = %dt_action_lib.exit
  %11 = tail call ptr @dt_act_on_get_images(i32 noundef 0, i32 noundef 1, i32 noundef 0) #16
  %12 = load ptr, ptr %8, align 8, !tbaa !139
  %13 = tail call i32 @dt_tag_attach_string_list(ptr noundef %12, ptr noundef %11, i32 noundef 1) #16
  %.not11 = icmp eq i32 %13, 0
  br i1 %.not11, label %.critedge, label %14

14:                                               ; preds = %10
  tail call void @dt_image_synch_xmps(ptr noundef %11) #16
  tail call void @g_list_free(ptr noundef %11) #16
  tail call fastcc void @_init_treeview(ptr noundef nonnull %.0.lcssa.i, i32 noundef 0)
  tail call fastcc void @_init_treeview(ptr noundef nonnull %.0.lcssa.i, i32 noundef 1)
  tail call fastcc void @_raise_signal_tag_changed(ptr noundef nonnull %.0.lcssa.i)
  br label %15

.critedge:                                        ; preds = %10
  tail call void @g_list_free(ptr noundef %11) #16
  tail call fastcc void @_init_treeview(ptr noundef nonnull %.0.lcssa.i, i32 noundef 0)
  tail call fastcc void @_init_treeview(ptr noundef nonnull %.0.lcssa.i, i32 noundef 1)
  br label %15

15:                                               ; preds = %14, %.critedge, %dt_action_lib.exit
  ret void
}